	.file	"b.cpp"
	.section .rdata,"dr"
_ZStL19piecewise_construct:
	.space 1
.lcomm _ZStL8__ioinit,1,1
	.def	__main;	.scl	2;	.type	32;	.endef
.LC0:
	.ascii "Hello World!\0"
.LC1:
	.ascii "Do you know who I am\0"
.LC2:
	.ascii "I am \0"
	.align 8
.LC3:
	.ascii ", I hope my husban can make decisons for me\0"
	.text
	.globl	main
	.def	main;	.scl	2;	.type	32;	.endef
	.seh_proc	main
main:
.LFB1547:
	pushq	%rbp
	.seh_pushreg	%rbp
	pushq	%rbx
	.seh_pushreg	%rbx
	subq	$72, %rsp
	.seh_stackalloc	72
	leaq	128(%rsp), %rbp
	.seh_setframe	%rbp, 128
	.seh_endprologue
	call	__main
	leaq	.LC0(%rip), %rdx
	movq	.refptr._ZSt4cout(%rip), %rcx
.LEHB0:
	call	_ZStlsISt11char_traitsIcEERSt13basic_ostreamIcT_ES5_PKc
	movq	.refptr._ZSt4endlIcSt11char_traitsIcEERSt13basic_ostreamIT_T0_ES6_(%rip), %rdx
	movq	%rax, %rcx
	call	_ZNSolsEPFRSoS_E
.LEHE0:
	leaq	-96(%rbp), %rax
	movq	%rax, %rcx
	call	_ZNSt7__cxx1112basic_stringIcSt11char_traitsIcESaIcEEC1Ev
	leaq	-96(%rbp), %rax
	movq	%rax, %rdx
	movq	.refptr._ZSt3cin(%rip), %rcx
.LEHB1:
	call	_ZStrsIcSt11char_traitsIcESaIcEERSt13basic_istreamIT_T0_ES7_RNSt7__cxx1112basic_stringIS4_S5_T1_EE
	leaq	.LC1(%rip), %rdx
	movq	.refptr._ZSt4cout(%rip), %rcx
	call	_ZStlsISt11char_traitsIcEERSt13basic_ostreamIcT_ES5_PKc
	movq	.refptr._ZSt4endlIcSt11char_traitsIcEERSt13basic_ostreamIT_T0_ES6_(%rip), %rdx
	movq	%rax, %rcx
	call	_ZNSolsEPFRSoS_E
	leaq	.LC2(%rip), %rdx
	movq	.refptr._ZSt4cout(%rip), %rcx
	call	_ZStlsISt11char_traitsIcEERSt13basic_ostreamIcT_ES5_PKc
	movq	%rax, %rcx
	leaq	-96(%rbp), %rax
	movq	%rax, %rdx
	call	_ZStlsIcSt11char_traitsIcESaIcEERSt13basic_ostreamIT_T0_ES7_RKNSt7__cxx1112basic_stringIS4_S5_T1_EE
	leaq	.LC3(%rip), %rdx
	movq	%rax, %rcx
	call	_ZStlsISt11char_traitsIcEERSt13basic_ostreamIcT_ES5_PKc
	movq	.refptr._ZSt4endlIcSt11char_traitsIcEERSt13basic_ostreamIT_T0_ES6_(%rip), %rdx
	movq	%rax, %rcx
	call	_ZNSolsEPFRSoS_E
.LEHE1:
	movl	$0, %ebx
	leaq	-96(%rbp), %rax
	movq	%rax, %rcx
	call	_ZNSt7__cxx1112basic_stringIcSt11char_traitsIcESaIcEED1Ev
	movl	%ebx, %eax
	jmp	.L5
.L4:
	movq	%rax, %rbx
	leaq	-96(%rbp), %rax
	movq	%rax, %rcx
	call	_ZNSt7__cxx1112basic_stringIcSt11char_traitsIcESaIcEED1Ev
	movq	%rbx, %rax
	movq	%rax, %rcx
.LEHB2:
	call	_Unwind_Resume
.LEHE2:
.L5:
	addq	$72, %rsp
	popq	%rbx
	popq	%rbp
	ret
	.def	__gxx_personality_seh0;	.scl	2;	.type	32;	.endef
	.seh_handler	__gxx_personality_seh0, @unwind, @except
	.seh_handlerdata
.LLSDA1547:
	.byte	0xff
	.byte	0xff
	.byte	0x1
	.uleb128 .LLSDACSE1547-.LLSDACSB1547
.LLSDACSB1547:
	.uleb128 .LEHB0-.LFB1547
	.uleb128 .LEHE0-.LEHB0
	.uleb128 0
	.uleb128 0
	.uleb128 .LEHB1-.LFB1547
	.uleb128 .LEHE1-.LEHB1
	.uleb128 .L4-.LFB1547
	.uleb128 0
	.uleb128 .LEHB2-.LFB1547
	.uleb128 .LEHE2-.LEHB2
	.uleb128 0
	.uleb128 0
.LLSDACSE1547:
	.text
	.seh_endproc
	.def	__tcf_0;	.scl	3;	.type	32;	.endef
	.seh_proc	__tcf_0
__tcf_0:
.LFB2041:
	pushq	%rbp
	.seh_pushreg	%rbp
	movq	%rsp, %rbp
	.seh_setframe	%rbp, 0
	subq	$32, %rsp
	.seh_stackalloc	32
	.seh_endprologue
	leaq	_ZStL8__ioinit(%rip), %rcx
	call	_ZNSt8ios_base4InitD1Ev
	nop
	addq	$32, %rsp
	popq	%rbp
	ret
	.seh_endproc
	.def	_Z41__static_initialization_and_destruction_0ii;	.scl	3;	.type	32;	.endef
	.seh_proc	_Z41__static_initialization_and_destruction_0ii
_Z41__static_initialization_and_destruction_0ii:
.LFB2040:
	pushq	%rbp
	.seh_pushreg	%rbp
	movq	%rsp, %rbp
	.seh_setframe	%rbp, 0
	subq	$32, %rsp
	.seh_stackalloc	32
	.seh_endprologue
	movl	%ecx, 16(%rbp)
	movl	%edx, 24(%rbp)
	cmpl	$1, 16(%rbp)
	jne	.L9
	cmpl	$65535, 24(%rbp)
	jne	.L9
	leaq	_ZStL8__ioinit(%rip), %rcx
	call	_ZNSt8ios_base4InitC1Ev
	leaq	__tcf_0(%rip), %rcx
	call	atexit
.L9:
	nop
	addq	$32, %rsp
	popq	%rbp
	ret
	.seh_endproc
	.def	_GLOBAL__sub_I_main;	.scl	3;	.type	32;	.endef
	.seh_proc	_GLOBAL__sub_I_main
_GLOBAL__sub_I_main:
.LFB2042:
	pushq	%rbp
	.seh_pushreg	%rbp
	movq	%rsp, %rbp
	.seh_setframe	%rbp, 0
	subq	$32, %rsp
	.seh_stackalloc	32
	.seh_endprologue
	movl	$65535, %edx
	movl	$1, %ecx
	call	_Z41__static_initialization_and_destruction_0ii
	nop
	addq	$32, %rsp
	popq	%rbp
	ret
	.seh_endproc
	.section	.ctors,"w"
	.align 8
	.quad	_GLOBAL__sub_I_main
	.ident	"GCC: (x86_64-posix-seh-rev0, Built by MinGW-W64 project) 7.2.0"
	.def	_ZStlsISt11char_traitsIcEERSt13basic_ostreamIcT_ES5_PKc;	.scl	2;	.type	32;	.endef
	.def	_ZNSolsEPFRSoS_E;	.scl	2;	.type	32;	.endef
	.def	_ZNSt7__cxx1112basic_stringIcSt11char_traitsIcESaIcEEC1Ev;	.scl	2;	.type	32;	.endef
	.def	_ZStrsIcSt11char_traitsIcESaIcEERSt13basic_istreamIT_T0_ES7_RNSt7__cxx1112basic_stringIS4_S5_T1_EE;	.scl	2;	.type	32;	.endef
	.def	_ZStlsIcSt11char_traitsIcESaIcEERSt13basic_ostreamIT_T0_ES7_RKNSt7__cxx1112basic_stringIS4_S5_T1_EE;	.scl	2;	.type	32;	.endef
	.def	_ZNSt7__cxx1112basic_stringIcSt11char_traitsIcESaIcEED1Ev;	.scl	2;	.type	32;	.endef
	.def	_Unwind_Resume;	.scl	2;	.type	32;	.endef
	.def	_ZNSt8ios_base4InitD1Ev;	.scl	2;	.type	32;	.endef
	.def	_ZNSt8ios_base4InitC1Ev;	.scl	2;	.type	32;	.endef
	.def	atexit;	.scl	2;	.type	32;	.endef
	.section	.rdata$.refptr._ZSt3cin, "dr"
	.globl	.refptr._ZSt3cin
	.linkonce	discard
.refptr._ZSt3cin:
	.quad	_ZSt3cin
	.section	.rdata$.refptr._ZSt4endlIcSt11char_traitsIcEERSt13basic_ostreamIT_T0_ES6_, "dr"
	.globl	.refptr._ZSt4endlIcSt11char_traitsIcEERSt13basic_ostreamIT_T0_ES6_
	.linkonce	discard
.refptr._ZSt4endlIcSt11char_traitsIcEERSt13basic_ostreamIT_T0_ES6_:
	.quad	_ZSt4endlIcSt11char_traitsIcEERSt13basic_ostreamIT_T0_ES6_
	.section	.rdata$.refptr._ZSt4cout, "dr"
	.globl	.refptr._ZSt4cout
	.linkonce	discard
.refptr._ZSt4cout:
	.quad	_ZSt4cout
